; Function Attrs: nounwind uwtable
define internal void @LZ4_compressResetStream(ptr noundef readonly captures(none) %0) #3 {
  %2 = getelementptr inbounds nuw i8, ptr %0, i64 24
  %3 = load ptr, ptr %2, align 8, !tbaa !63
  tail call void @LZ4_resetStream_fast(ptr noundef %3) #19
  %4 = load ptr, ptr %2, align 8, !tbaa !63
  %5 = getelementptr inbounds nuw i8, ptr %0, i64 32
  %6 = load ptr, ptr %5, align 8, !tbaa !64
  tail call void @LZ4_attach_dictionary(ptr noundef %4, ptr noundef %6) #19
  ret void
}